target datalayout = "e-m:e-p270:32:32-p271:32:32-p272:64:64-i64:64-i128:128-f80:128-n8:16:32:64-S128"
target triple = "x86_64-pc-linux-gnu"

; Function Attrs: mustprogress nounwind uwtable
define internal noundef ptr @_ZL22expandCommutativeBinOpN4llvm11Instruction9BinaryOpsEPNS_5ValueES3_S1_RKNS_13SimplifyQueryEj(i32 noundef %0, ptr noundef %1, ptr noundef %2, i32 noundef %3, ptr noundef nonnull align 8 dereferenceable(58) %4, i32 noundef %5) #1 {
  %7 = alloca ptr, align 8
  %8 = alloca i32, align 4
  %9 = alloca ptr, align 8
  %10 = alloca ptr, align 8
  %11 = alloca i32, align 4
  %12 = alloca ptr, align 8
  %13 = alloca i32, align 4
  %14 = alloca ptr, align 8
  %15 = alloca ptr, align 8
  store i32 %0, ptr %8, align 4
  store ptr %1, ptr %9, align 8
  store ptr %2, ptr %10, align 8
  store i32 %3, ptr %11, align 4
  store ptr %4, ptr %12, align 8
  store i32 %5, ptr %13, align 4
  %16 = load i32, ptr %13, align 4
  %17 = add i32 %16, -1
  store i32 %17, ptr %13, align 4
  %18 = icmp ne i32 %16, 0
  br i1 %18, label %20, label %19

19:                                               ; preds = %6
  store ptr null, ptr %7, align 8
  br label %45

20:                                               ; preds = %6
  %21 = load i32, ptr %8, align 4
  %22 = load ptr, ptr %9, align 8
  %23 = load ptr, ptr %10, align 8
  %24 = load i32, ptr %11, align 4
  %25 = load ptr, ptr %12, align 8
  %26 = load i32, ptr %13, align 4
  %27 = call noundef ptr @_ZL11expandBinOpN4llvm11Instruction9BinaryOpsEPNS_5ValueES3_S1_RKNS_13SimplifyQueryEj(i32 noundef %21, ptr noundef %22, ptr noundef %23, i32 noundef %24, ptr noundef nonnull align 8 dereferenceable(58) %25, i32 noundef %26)
  store ptr %27, ptr %14, align 8
  %28 = load ptr, ptr %14, align 8
  %29 = icmp ne ptr %28, null
  br i1 %29, label %30, label %32

30:                                               ; preds = %20
  %31 = load ptr, ptr %14, align 8
  store ptr %31, ptr %7, align 8
  br label %45

32:                                               ; preds = %20
  %33 = load i32, ptr %8, align 4
  %34 = load ptr, ptr %10, align 8
  %35 = load ptr, ptr %9, align 8
  %36 = load i32, ptr %11, align 4
  %37 = load ptr, ptr %12, align 8
  %38 = load i32, ptr %13, align 4
  %39 = call noundef ptr @_ZL11expandBinOpN4llvm11Instruction9BinaryOpsEPNS_5ValueES3_S1_RKNS_13SimplifyQueryEj(i32 noundef %33, ptr noundef %34, ptr noundef %35, i32 noundef %36, ptr noundef nonnull align 8 dereferenceable(58) %37, i32 noundef %38)
  store ptr %39, ptr %15, align 8
  %40 = load ptr, ptr %15, align 8
  %41 = icmp ne ptr %40, null
  br i1 %41, label %42, label %44

42:                                               ; preds = %32
  %43 = load ptr, ptr %15, align 8
  store ptr %43, ptr %7, align 8
  br label %45

44:                                               ; preds = %32
  store ptr null, ptr %7, align 8
  br label %45

45:                                               ; preds = %44, %42, %30, %19
  %46 = load ptr, ptr %7, align 8
  ret ptr %46
}