; Function Attrs: mustprogress nounwind uwtable
define internal fastcc noundef ptr @_ZL22expandCommutativeBinOpN4llvm11Instruction9BinaryOpsEPNS_5ValueES3_S1_RKNS_13SimplifyQueryEj(i32 noundef %0, ptr noundef %1, ptr noundef %2, i32 noundef %3, ptr noundef nonnull align 8 dereferenceable(58) %4, i32 noundef %5) unnamed_addr #0 {
  %7 = add i32 %5, -1
  %.not = icmp eq i32 %5, 0
  br i1 %.not, label %12, label %8

8:                                                ; preds = %6
  %9 = tail call fastcc noundef ptr @_ZL11expandBinOpN4llvm11Instruction9BinaryOpsEPNS_5ValueES3_S1_RKNS_13SimplifyQueryEj(i32 noundef %0, ptr noundef %1, ptr noundef %2, i32 noundef %3, ptr noundef nonnull align 8 dereferenceable(58) %4, i32 noundef %7)
  %.not19 = icmp eq ptr %9, null
  br i1 %.not19, label %10, label %12

10:                                               ; preds = %8
  %11 = tail call fastcc noundef ptr @_ZL11expandBinOpN4llvm11Instruction9BinaryOpsEPNS_5ValueES3_S1_RKNS_13SimplifyQueryEj(i32 noundef %0, ptr noundef %2, ptr noundef %1, i32 noundef %3, ptr noundef nonnull align 8 dereferenceable(58) %4, i32 noundef %7)
  br label %12

12:                                               ; preds = %10, %8, %6
  %.0 = phi ptr [ null, %6 ], [ %9, %8 ], [ %11, %10 ]
  ret ptr %.0
}